target datalayout = "e-m:e-p270:32:32-p271:32:32-p272:64:64-i64:64-i128:128-f80:128-n8:16:32:64-S128"
target triple = "x86_64-pc-linux-gnu"

%struct.CVodeMemRec = type { ptr, double, ptr, ptr, i32, i32, double, double, ptr, i32, i32, ptr, ptr, i32, i32, ptr, i32, i32, double, double, ptr, i32, i32, i32, i32, ptr, ptr, ptr, i32, i32, ptr, ptr, ptr, i32, double, i32, i32, double, ptr, ptr, ptr, i32, ptr, ptr, i32, i32, i32, double, ptr, ptr, ptr, [13 x ptr], ptr, ptr, ptr, ptr, ptr, ptr, ptr, ptr, ptr, [13 x ptr], ptr, ptr, ptr, ptr, [13 x ptr], ptr, ptr, ptr, ptr, ptr, i32, [13 x ptr], ptr, ptr, ptr, ptr, ptr, i32, i32, double, i32, i32, i32, i32, i32, double, double, double, double, double, double, double, double, [14 x double], [6 x double], [13 x double], double, double, double, double, double, double, double, double, i32, double, double, i32, double, double, ptr, i32, i64, i32, i32, i32, double, double, double, double, double, double, double, double, double, double, double, double, i64, i32, i64, i64, i64, i64, i64, i64, i64, i64, i64, ptr, i64, i64, ptr, i64, i64, ptr, i64, i64, i64, i64, i64, i64, i32, double, double, double, i64, i64, i64, i64, i64, i64, ptr, i32, ptr, i32, ptr, i32, ptr, i32, i32, i64, i32, ptr, i32, ptr, ptr, ptr, ptr, ptr, ptr, i32, i32, ptr, ptr, ptr, ptr, ptr, i64, double, i32, i32, i64, double, double, double, i32, i32, double, i32, i32, i32, i32, i32, i32, i32, i32, i32, i32, i32, i32, i32, i32, i32, i32, ptr, i64, i32, [6 x [4 x double]], i32, i64, ptr, i32, ptr, ptr, double, double, double, ptr, ptr, ptr, double, double, i32, i32, i64, ptr, i32, ptr, i32, i32, [13 x double], ptr, ptr, ptr, i32, ptr, i32 }
%struct.CVadjMemRec = type { double, double, i32, i32, double, i32, double, ptr, i32, ptr, i32, ptr, i32, ptr, i64, i64, ptr, i64, i32, ptr, ptr, ptr, ptr, i32, i32, i32, i32, [13 x ptr], [13 x ptr], [13 x double], ptr, ptr }
%struct.CVdtpntMemRec = type { double, ptr }
%struct.CVpolynomialDataMemRec = type { ptr, ptr, i32 }

; Function Attrs: nounwind uwtable
define internal void @CVApolynomialFree(ptr noundef %0) #0 {
  %2 = alloca ptr, align 8
  %3 = alloca ptr, align 8
  %4 = alloca ptr, align 8
  %5 = alloca ptr, align 8
  %6 = alloca i64, align 8
  store ptr %0, ptr %2, align 8, !tbaa !11
  call void @llvm.lifetime.start.p0(i64 8, ptr %3) #6
  call void @llvm.lifetime.start.p0(i64 8, ptr %4) #6
  call void @llvm.lifetime.start.p0(i64 8, ptr %5) #6
  call void @llvm.lifetime.start.p0(i64 8, ptr %6) #6
  %7 = load ptr, ptr %2, align 8, !tbaa !11
  %8 = getelementptr inbounds nuw %struct.CVodeMemRec, ptr %7, i32 0, i32 248
  %9 = load ptr, ptr %8, align 8, !tbaa !15
  store ptr %9, ptr %3, align 8, !tbaa !13
  %10 = load ptr, ptr %3, align 8, !tbaa !13
  %11 = getelementptr inbounds nuw %struct.CVadjMemRec, ptr %10, i32 0, i32 30
  %12 = load ptr, ptr %11, align 8, !tbaa !56
  call void @N_VDestroy(ptr noundef %12)
  %13 = load ptr, ptr %3, align 8, !tbaa !13
  %14 = getelementptr inbounds nuw %struct.CVadjMemRec, ptr %13, i32 0, i32 25
  %15 = load i32, ptr %14, align 8, !tbaa !44
  %16 = icmp ne i32 %15, 0
  br i1 %16, label %17, label %24

17:                                               ; preds = %1
  %18 = load ptr, ptr %3, align 8, !tbaa !13
  %19 = getelementptr inbounds nuw %struct.CVadjMemRec, ptr %18, i32 0, i32 31
  %20 = load ptr, ptr %19, align 8, !tbaa !58
  %21 = load ptr, ptr %2, align 8, !tbaa !11
  %22 = getelementptr inbounds nuw %struct.CVodeMemRec, ptr %21, i32 0, i32 23
  %23 = load i32, ptr %22, align 8, !tbaa !57
  call void @N_VDestroyVectorArray(ptr noundef %20, i32 noundef %23)
  br label %24

24:                                               ; preds = %17, %1
  %25 = load ptr, ptr %3, align 8, !tbaa !13
  %26 = getelementptr inbounds nuw %struct.CVadjMemRec, ptr %25, i32 0, i32 16
  %27 = load ptr, ptr %26, align 8, !tbaa !36
  store ptr %27, ptr %4, align 8, !tbaa !59
  store i64 0, ptr %6, align 8, !tbaa !7
  br label %28

28:                                               ; preds = %67, %24
  %29 = load i64, ptr %6, align 8, !tbaa !7
  %30 = load ptr, ptr %3, align 8, !tbaa !13
  %31 = getelementptr inbounds nuw %struct.CVadjMemRec, ptr %30, i32 0, i32 14
  %32 = load i64, ptr %31, align 8, !tbaa !34
  %33 = icmp sle i64 %29, %32
  br i1 %33, label %34, label %70

34:                                               ; preds = %28
  %35 = load ptr, ptr %4, align 8, !tbaa !59
  %36 = load i64, ptr %6, align 8, !tbaa !7
  %37 = getelementptr inbounds ptr, ptr %35, i64 %36
  %38 = load ptr, ptr %37, align 8, !tbaa !37
  %39 = getelementptr inbounds nuw %struct.CVdtpntMemRec, ptr %38, i32 0, i32 1
  %40 = load ptr, ptr %39, align 8, !tbaa !67
  store ptr %40, ptr %5, align 8, !tbaa !80
  %41 = load ptr, ptr %5, align 8, !tbaa !80
  %42 = getelementptr inbounds nuw %struct.CVpolynomialDataMemRec, ptr %41, i32 0, i32 0
  %43 = load ptr, ptr %42, align 8, !tbaa !82
  call void @N_VDestroy(ptr noundef %43)
  %44 = load ptr, ptr %3, align 8, !tbaa !13
  %45 = getelementptr inbounds nuw %struct.CVadjMemRec, ptr %44, i32 0, i32 25
  %46 = load i32, ptr %45, align 8, !tbaa !44
  %47 = icmp ne i32 %46, 0
  br i1 %47, label %48, label %55

48:                                               ; preds = %34
  %49 = load ptr, ptr %5, align 8, !tbaa !80
  %50 = getelementptr inbounds nuw %struct.CVpolynomialDataMemRec, ptr %49, i32 0, i32 1
  %51 = load ptr, ptr %50, align 8, !tbaa !84
  %52 = load ptr, ptr %2, align 8, !tbaa !11
  %53 = getelementptr inbounds nuw %struct.CVodeMemRec, ptr %52, i32 0, i32 23
  %54 = load i32, ptr %53, align 8, !tbaa !57
  call void @N_VDestroyVectorArray(ptr noundef %51, i32 noundef %54)
  br label %55

55:                                               ; preds = %48, %34
  %56 = load ptr, ptr %4, align 8, !tbaa !59
  %57 = load i64, ptr %6, align 8, !tbaa !7
  %58 = getelementptr inbounds ptr, ptr %56, i64 %57
  %59 = load ptr, ptr %58, align 8, !tbaa !37
  %60 = getelementptr inbounds nuw %struct.CVdtpntMemRec, ptr %59, i32 0, i32 1
  %61 = load ptr, ptr %60, align 8, !tbaa !67
  call void @free(ptr noundef %61) #6
  %62 = load ptr, ptr %4, align 8, !tbaa !59
  %63 = load i64, ptr %6, align 8, !tbaa !7
  %64 = getelementptr inbounds ptr, ptr %62, i64 %63
  %65 = load ptr, ptr %64, align 8, !tbaa !37
  %66 = getelementptr inbounds nuw %struct.CVdtpntMemRec, ptr %65, i32 0, i32 1
  store ptr null, ptr %66, align 8, !tbaa !67
  br label %67

67:                                               ; preds = %55
  %68 = load i64, ptr %6, align 8, !tbaa !7
  %69 = add nsw i64 %68, 1
  store i64 %69, ptr %6, align 8, !tbaa !7
  br label %28

70:                                               ; preds = %28
  call void @llvm.lifetime.end.p0(i64 8, ptr %6) #6
  call void @llvm.lifetime.end.p0(i64 8, ptr %5) #6
  call void @llvm.lifetime.end.p0(i64 8, ptr %4) #6
  call void @llvm.lifetime.end.p0(i64 8, ptr %3) #6
  ret void
}