; Function Attrs: nounwind uwtable
define internal void @CVApolynomialFree(ptr noundef readonly captures(none) %0) #0 {
  %2 = getelementptr inbounds nuw i8, ptr %0, i64 2672
  %3 = load ptr, ptr %2, align 8, !tbaa !3
  %4 = getelementptr inbounds nuw i8, ptr %3, i64 504
  %5 = load ptr, ptr %4, align 8, !tbaa !50
  tail call void @N_VDestroy(ptr noundef %5) #9
  %6 = getelementptr inbounds nuw i8, ptr %3, i64 184
  %7 = load i32, ptr %6, align 8, !tbaa !38
  %.not = icmp eq i32 %7, 0
  br i1 %.not, label %13, label %8

8:                                                ; preds = %1
  %9 = getelementptr inbounds nuw i8, ptr %3, i64 512
  %10 = load ptr, ptr %9, align 8, !tbaa !52
  %11 = getelementptr inbounds nuw i8, ptr %0, i64 144
  %12 = load i32, ptr %11, align 8, !tbaa !51
  tail call void @N_VDestroyVectorArray(ptr noundef %10, i32 noundef %12) #9
  br label %13

13:                                               ; preds = %8, %1
  %14 = getelementptr inbounds nuw i8, ptr %3, i64 120
  %15 = load ptr, ptr %14, align 8, !tbaa !30
  %16 = getelementptr inbounds nuw i8, ptr %3, i64 104
  %17 = load i64, ptr %16, align 8, !tbaa !28
  %.not1820 = icmp slt i64 %17, 0
  br i1 %.not1820, label %._crit_edge, label %.lr.ph

.lr.ph:                                           ; preds = %13
  %18 = getelementptr inbounds nuw i8, ptr %0, i64 144
  br label %19

19:                                               ; preds = %.lr.ph, %30
  %.021 = phi i64 [ 0, %.lr.ph ], [ %36, %30 ]
  %20 = getelementptr inbounds nuw ptr, ptr %15, i64 %.021
  %21 = load ptr, ptr %20, align 8, !tbaa !31
  %22 = getelementptr inbounds nuw i8, ptr %21, i64 8
  %23 = load ptr, ptr %22, align 8, !tbaa !58
  %24 = load ptr, ptr %23, align 8, !tbaa !76
  tail call void @N_VDestroy(ptr noundef %24) #9
  %25 = load i32, ptr %6, align 8, !tbaa !38
  %.not19 = icmp eq i32 %25, 0
  br i1 %.not19, label %30, label %26

26:                                               ; preds = %19
  %27 = getelementptr inbounds nuw i8, ptr %23, i64 8
  %28 = load ptr, ptr %27, align 8, !tbaa !78
  %29 = load i32, ptr %18, align 8, !tbaa !51
  tail call void @N_VDestroyVectorArray(ptr noundef %28, i32 noundef %29) #9
  br label %30

30:                                               ; preds = %26, %19
  %31 = load ptr, ptr %20, align 8, !tbaa !31
  %32 = getelementptr inbounds nuw i8, ptr %31, i64 8
  %33 = load ptr, ptr %32, align 8, !tbaa !58
  tail call void @free(ptr noundef %33) #9
  %34 = load ptr, ptr %20, align 8, !tbaa !31
  %35 = getelementptr inbounds nuw i8, ptr %34, i64 8
  store ptr null, ptr %35, align 8, !tbaa !58
  %36 = add nuw nsw i64 %.021, 1
  %37 = load i64, ptr %16, align 8, !tbaa !28
  %.not18.not = icmp slt i64 %.021, %37
  br i1 %.not18.not, label %19, label %._crit_edge

._crit_edge:                                      ; preds = %30, %13
  ret void
}